
test_irq_nr.elf:     file format elf32-littleriscv

SYMBOL TABLE:
00010000 l    d  .text	00000000 .text
00000000 l    d  .data	00000000 .data
00000004 l    d  .bss	00000000 .bss
00000004 l    d  .heap	00000000 .heap
00000000 l    df *ABS*	00000000 /tmp/ccSIOvTw.o
00100000 l       *ABS*	00000000 INTCON
00100004 l       *ABS*	00000000 INTFLAGS
00100008 l       *ABS*	00000000 UART_TX
0010000c l       *ABS*	00000000 UART_RX
00100010 l       *ABS*	00000000 UART_CONF
00100014 l       *ABS*	00000000 PORTA
00100018 l       *ABS*	00000000 PORTB
00000020 l       *ABS*	00000000 IRQ_5
00000040 l       *ABS*	00000000 IRQ_6
00000080 l       *ABS*	00000000 IRQ_7
00000001 l       *ABS*	00000000 UART_RX_IF
00000002 l       *ABS*	00000000 UART_TX_IF
00000000 l       .data	00000000 flag_isr
00010000 l       .text	00000000 reset_vec
0001003c l       .text	00000000 start
00010010 l       .text	00000000 irq_vec
0001005c l       .text	00000000 irq_handler
0001005a l       .text	00000000 loop
0001007c l       .text	00000000 else1
00010098 l       .text	00000000 else2
000100b4 l       .text	00000000 else3
000100c0 g       .text	00000000 _sidata
000100c0 g       .text	00000000 _etext
00000004 g       .bss	00000000 _sbss
00000000 g       .data	00000000 _sdata
00000004 g       .bss	00000000 _ebss
00000004 g       .heap	00000000 _heap_start
00000000 g       .data	00000000 _ram_start
00000004 g       .data	00000000 _edata



Disassembly of section .text:

00010000 <reset_vec>:
   10000:	a835                	j	1003c <start>
   10002:	0001                	nop
   10004:	00000013          	nop
   10008:	00000013          	nop
   1000c:	00000013          	nop

00010010 <irq_vec>:
   10010:	00000293          	li	t0,0
   10014:	0002a503          	lw	a0,0(t0)
   10018:	00050863          	beqz	a0,10028 <irq_vec+0x18>
   1001c:	4501                	li	a0,0
   1001e:	00000293          	li	t0,0
   10022:	00a2a023          	sw	a0,0(t0)
   10026:	a809                	j	10038 <irq_vec+0x28>
   10028:	4505                	li	a0,1
   1002a:	00000293          	li	t0,0
   1002e:	00a2a023          	sw	a0,0(t0)
   10032:	0000c50b          	0xc50b
   10036:	201d                	jal	1005c <irq_handler>
   10038:	0400000b          	0x400000b

0001003c <start>:
   1003c:	0600600b          	0x600600b
   10040:	001002b7          	lui	t0,0x100
   10044:	01428293          	addi	t0,t0,20 # 100014 <PORTA>
   10048:	0aa00313          	li	t1,170
   1004c:	0062a023          	sw	t1,0(t0)
   10050:	4501                	li	a0,0
   10052:	00000293          	li	t0,0
   10056:	00a2a023          	sw	a0,0(t0)

0001005a <loop>:
   1005a:	a001                	j	1005a <loop>

0001005c <irq_handler>:
   1005c:	1141                	addi	sp,sp,-16
   1005e:	c606                	sw	ra,12(sp)
   10060:	02000293          	li	t0,32
   10064:	00557333          	and	t1,a0,t0
   10068:	00629a63          	bne	t0,t1,1007c <else1>
   1006c:	001002b7          	lui	t0,0x100
   10070:	01428293          	addi	t0,t0,20 # 100014 <PORTA>
   10074:	02000313          	li	t1,32
   10078:	0062a023          	sw	t1,0(t0)

0001007c <else1>:
   1007c:	04000293          	li	t0,64
   10080:	00557333          	and	t1,a0,t0
   10084:	00629a63          	bne	t0,t1,10098 <else2>
   10088:	001002b7          	lui	t0,0x100
   1008c:	01428293          	addi	t0,t0,20 # 100014 <PORTA>
   10090:	04000313          	li	t1,64
   10094:	0062a023          	sw	t1,0(t0)

00010098 <else2>:
   10098:	08000293          	li	t0,128
   1009c:	00557333          	and	t1,a0,t0
   100a0:	00629a63          	bne	t0,t1,100b4 <else3>
   100a4:	001002b7          	lui	t0,0x100
   100a8:	01428293          	addi	t0,t0,20 # 100014 <PORTA>
   100ac:	08000313          	li	t1,128
   100b0:	0062a023          	sw	t1,0(t0)

000100b4 <else3>:
   100b4:	40b2                	lw	ra,12(sp)
   100b6:	0141                	addi	sp,sp,16
   100b8:	8082                	ret
   100ba:	0000                	unimp
   100bc:	0000                	unimp
	...
