	.file	"timer0.c"
	.option nopic
# GNU C17 (GCC) version 8.2.0 (riscv32-unknown-elf)
#	compiled by GNU C version 7.5.0, GMP version 6.1.2, MPFR version 4.0.1, MPC version 1.1.0, isl version none
# GGC heuristics: --param ggc-min-expand=30 --param ggc-min-heapsize=4096
# options passed:  ../common/timer0.c -march=rv32imc -mabi=ilp32 -g -O3
# -Wall -fverbose-asm
# options enabled:  -faggressive-loop-optimizations -falign-functions
# -falign-jumps -falign-labels -falign-loops -fauto-inc-dec
# -fbranch-count-reg -fcaller-saves -fchkp-check-incomplete-type
# -fchkp-check-read -fchkp-check-write -fchkp-instrument-calls
# -fchkp-narrow-bounds -fchkp-optimize -fchkp-store-bounds
# -fchkp-use-static-bounds -fchkp-use-static-const-bounds
# -fchkp-use-wrappers -fcode-hoisting -fcombine-stack-adjustments -fcommon
# -fcompare-elim -fcprop-registers -fcrossjumping -fcse-follow-jumps
# -fdefer-pop -fdelete-null-pointer-checks -fdevirtualize
# -fdevirtualize-speculatively -fdwarf2-cfi-asm -fearly-inlining
# -feliminate-unused-debug-types -fexpensive-optimizations
# -fforward-propagate -ffp-int-builtin-inexact -ffunction-cse -fgcse
# -fgcse-after-reload -fgcse-lm -fgnu-runtime -fgnu-unique
# -fguess-branch-probability -fhoist-adjacent-loads -fident -fif-conversion
# -fif-conversion2 -findirect-inlining -finline -finline-atomics
# -finline-functions -finline-functions-called-once
# -finline-small-functions -fipa-bit-cp -fipa-cp -fipa-cp-clone -fipa-icf
# -fipa-icf-functions -fipa-icf-variables -fipa-profile -fipa-pure-const
# -fipa-ra -fipa-reference -fipa-sra -fipa-vrp -fira-hoist-pressure
# -fira-share-save-slots -fira-share-spill-slots
# -fisolate-erroneous-paths-dereference -fivopts -fkeep-static-consts
# -fleading-underscore -flifetime-dse -floop-interchange
# -floop-unroll-and-jam -flra-remat -flto-odr-type-merging -fmath-errno
# -fmerge-constants -fmerge-debug-strings -fmove-loop-invariants
# -fomit-frame-pointer -foptimize-sibling-calls -foptimize-strlen
# -fpartial-inlining -fpeel-loops -fpeephole -fpeephole2 -fplt
# -fpredictive-commoning -fprefetch-loop-arrays -free -freg-struct-return
# -freorder-blocks -freorder-functions -frerun-cse-after-loop
# -fsched-critical-path-heuristic -fsched-dep-count-heuristic
# -fsched-group-heuristic -fsched-interblock -fsched-last-insn-heuristic
# -fsched-rank-heuristic -fsched-spec -fsched-spec-insn-heuristic
# -fsched-stalled-insns-dep -fschedule-fusion -fschedule-insns
# -fschedule-insns2 -fsection-anchors -fsemantic-interposition
# -fshow-column -fshrink-wrap -fshrink-wrap-separate -fsigned-zeros
# -fsplit-ivs-in-unroller -fsplit-loops -fsplit-paths -fsplit-wide-types
# -fssa-backprop -fssa-phiopt -fstdarg-opt -fstore-merging
# -fstrict-aliasing -fstrict-volatile-bitfields -fsync-libcalls
# -fthread-jumps -ftoplevel-reorder -ftrapping-math -ftree-bit-ccp
# -ftree-builtin-call-dce -ftree-ccp -ftree-ch -ftree-coalesce-vars
# -ftree-copy-prop -ftree-dce -ftree-dominator-opts -ftree-dse
# -ftree-forwprop -ftree-fre -ftree-loop-distribute-patterns
# -ftree-loop-distribution -ftree-loop-if-convert -ftree-loop-im
# -ftree-loop-ivcanon -ftree-loop-optimize -ftree-loop-vectorize
# -ftree-parallelize-loops= -ftree-partial-pre -ftree-phiprop -ftree-pre
# -ftree-pta -ftree-reassoc -ftree-scev-cprop -ftree-sink
# -ftree-slp-vectorize -ftree-slsr -ftree-sra -ftree-switch-conversion
# -ftree-tail-merge -ftree-ter -ftree-vrp -funit-at-a-time -funswitch-loops
# -fvar-tracking -fvar-tracking-assignments -fverbose-asm
# -fzero-initialized-in-bss -mdiv -mexplicit-relocs -mplt -mstrict-align

	.text
.Ltext0:
	.cfi_sections	.debug_frame
	.comm	TMR0_InterruptHandler,4,4
	.align	1
	.globl	TMR0_Initialize
	.type	TMR0_Initialize, @function
TMR0_Initialize:
.LFB0:
	.file 1 "../common/timer0.c"
	.loc 1 9 1
	.cfi_startproc
.LVL0:
	addi	sp,sp,-32	#,,
	.cfi_def_cfa_offset 32
	sw	ra,28(sp)	#,
	sw	s0,24(sp)	#,
	.cfi_offset 1, -4
	.cfi_offset 8, -8
	addi	s0,sp,32	#,,
	.cfi_def_cfa 8, 0
	sw	a0,-20(s0)	# conf, conf
	.loc 1 11 2
	li	a5,1048576		# tmp73,
	addi	a5,a5,32	#, _1, tmp73
# ../common/timer0.c:11: 	reg_timer0_conf = conf;
	.loc 1 11 18 is_stmt 0
	lw	a4,-20(s0)		# tmp74, conf
	sw	a4,0(a5)	# tmp74, *_1
	.loc 1 18 2 is_stmt 1
	lui	a5,%hi(TMR0_DefaultInterruptHandler)	# tmp75,
	addi	a0,a5,%lo(TMR0_DefaultInterruptHandler)	#, tmp75,
.LVL1:
	call	TMR0_SetInterruptHandler		#
.LVL2:
# ../common/timer0.c:20: }
	.loc 1 20 1 is_stmt 0
	nop	
	lw	ra,28(sp)		#,
	.cfi_restore 1
	lw	s0,24(sp)		#,
	.cfi_restore 8
.LVL3:
	addi	sp,sp,32	#,,
	.cfi_def_cfa_register 2
.LVL4:
	jr	ra		#
	.cfi_endproc
.LFE0:
	.size	TMR0_Initialize, .-TMR0_Initialize
	.align	1
	.globl	TMR0_StartTimer
	.type	TMR0_StartTimer, @function
TMR0_StartTimer:
.LFB1:
	.loc 1 23 1 is_stmt 1
	.cfi_startproc
	addi	sp,sp,-16	#,,
	.cfi_def_cfa_offset 16
	sw	s0,12(sp)	#,
	.cfi_offset 8, -4
	addi	s0,sp,16	#,,
	.cfi_def_cfa 8, 0
	.loc 1 24 2
# ../common/timer0.c:24: 	reg_timer0_conf_bits->GO = 1;
	.loc 1 24 22 is_stmt 0
	lui	a5,%hi(reg_timer0_conf_bits)	# tmp73,
	lw	a5,%lo(reg_timer0_conf_bits)(a5)		# reg_timer0_conf_bits.0_1, reg_timer0_conf_bits
# ../common/timer0.c:24: 	reg_timer0_conf_bits->GO = 1;
	.loc 1 24 27
	lbu	a4,0(a5)	# tmp75, reg_timer0_conf_bits.0_1->GO
	ori	a4,a4,2	#, tmp76, tmp75
	sb	a4,0(a5)	# tmp77, reg_timer0_conf_bits.0_1->GO
# ../common/timer0.c:25: }
	.loc 1 25 1
	nop	
	lw	s0,12(sp)		#,
	.cfi_restore 8
	addi	sp,sp,16	#,,
	.cfi_def_cfa_register 2
	jr	ra		#
	.cfi_endproc
.LFE1:
	.size	TMR0_StartTimer, .-TMR0_StartTimer
	.align	1
	.globl	TMR0_StopTimer
	.type	TMR0_StopTimer, @function
TMR0_StopTimer:
.LFB2:
	.loc 1 31 1 is_stmt 1
	.cfi_startproc
	addi	sp,sp,-16	#,,
	.cfi_def_cfa_offset 16
	sw	s0,12(sp)	#,
	.cfi_offset 8, -4
	addi	s0,sp,16	#,,
	.cfi_def_cfa 8, 0
	.loc 1 32 2
# ../common/timer0.c:32: 	reg_timer0_conf_bits->EN = 0;
	.loc 1 32 22 is_stmt 0
	lui	a5,%hi(reg_timer0_conf_bits)	# tmp74,
	lw	a5,%lo(reg_timer0_conf_bits)(a5)		# reg_timer0_conf_bits.1_1, reg_timer0_conf_bits
# ../common/timer0.c:32: 	reg_timer0_conf_bits->EN = 0;
	.loc 1 32 27
	lbu	a4,0(a5)	# tmp76, reg_timer0_conf_bits.1_1->EN
	andi	a4,a4,-5	#, tmp77, tmp76
	sb	a4,0(a5)	# tmp78, reg_timer0_conf_bits.1_1->EN
	.loc 1 33 2 is_stmt 1
# ../common/timer0.c:33: 	reg_timer0_conf_bits->GO = 0;
	.loc 1 33 22 is_stmt 0
	lui	a5,%hi(reg_timer0_conf_bits)	# tmp79,
	lw	a5,%lo(reg_timer0_conf_bits)(a5)		# reg_timer0_conf_bits.2_2, reg_timer0_conf_bits
# ../common/timer0.c:33: 	reg_timer0_conf_bits->GO = 0;
	.loc 1 33 27
	lbu	a4,0(a5)	# tmp81, reg_timer0_conf_bits.2_2->GO
	andi	a4,a4,-3	#, tmp82, tmp81
	sb	a4,0(a5)	# tmp83, reg_timer0_conf_bits.2_2->GO
# ../common/timer0.c:34: }
	.loc 1 34 1
	nop	
	lw	s0,12(sp)		#,
	.cfi_restore 8
	addi	sp,sp,16	#,,
	.cfi_def_cfa_register 2
	jr	ra		#
	.cfi_endproc
.LFE2:
	.size	TMR0_StopTimer, .-TMR0_StopTimer
	.align	1
	.globl	TMR0_ISR
	.type	TMR0_ISR, @function
TMR0_ISR:
.LFB3:
	.loc 1 39 1 is_stmt 1
	.cfi_startproc
	addi	sp,sp,-16	#,,
	.cfi_def_cfa_offset 16
	sw	ra,12(sp)	#,
	sw	s0,8(sp)	#,
	.cfi_offset 1, -4
	.cfi_offset 8, -8
	addi	s0,sp,16	#,,
	.cfi_def_cfa 8, 0
	.loc 1 40 2
# ../common/timer0.c:40: 	reg_timer0_conf_bits->INT_TMR = 0;
	.loc 1 40 22 is_stmt 0
	lui	a5,%hi(reg_timer0_conf_bits)	# tmp75,
	lw	a5,%lo(reg_timer0_conf_bits)(a5)		# reg_timer0_conf_bits.3_1, reg_timer0_conf_bits
# ../common/timer0.c:40: 	reg_timer0_conf_bits->INT_TMR = 0;
	.loc 1 40 32
	lbu	a4,0(a5)	# tmp77, reg_timer0_conf_bits.3_1->INT_TMR
	andi	a4,a4,-2	#, tmp78, tmp77
	sb	a4,0(a5)	# tmp79, reg_timer0_conf_bits.3_1->INT_TMR
	.loc 1 42 2 is_stmt 1
# ../common/timer0.c:42: 	if(TMR0_InterruptHandler) {
	.loc 1 42 5 is_stmt 0
	lui	a5,%hi(TMR0_InterruptHandler)	# tmp80,
	lw	a5,%lo(TMR0_InterruptHandler)(a5)		# TMR0_InterruptHandler.4_2, TMR0_InterruptHandler
# ../common/timer0.c:42: 	if(TMR0_InterruptHandler) {
	.loc 1 42 4
	beqz	a5,.L6	#, TMR0_InterruptHandler.4_2,
	.loc 1 43 3 is_stmt 1
	lui	a5,%hi(TMR0_InterruptHandler)	# tmp81,
	lw	a5,%lo(TMR0_InterruptHandler)(a5)		# TMR0_InterruptHandler.5_3, TMR0_InterruptHandler
	jalr	a5		# TMR0_InterruptHandler.5_3
.LVL5:
.L6:
# ../common/timer0.c:45: }
	.loc 1 45 1 is_stmt 0
	nop	
	lw	ra,12(sp)		#,
	.cfi_restore 1
	lw	s0,8(sp)		#,
	.cfi_restore 8
	addi	sp,sp,16	#,,
	.cfi_def_cfa_register 2
	jr	ra		#
	.cfi_endproc
.LFE3:
	.size	TMR0_ISR, .-TMR0_ISR
	.align	1
	.globl	TMR0_WriteTimer
	.type	TMR0_WriteTimer, @function
TMR0_WriteTimer:
.LFB4:
	.loc 1 48 1 is_stmt 1
	.cfi_startproc
.LVL6:
	addi	sp,sp,-32	#,,
	.cfi_def_cfa_offset 32
	sw	s0,28(sp)	#,
	.cfi_offset 8, -4
	addi	s0,sp,32	#,,
	.cfi_def_cfa 8, 0
	sw	a0,-20(s0)	# timerVal, timerVal
	.loc 1 49 2
	li	a5,1048576		# tmp73,
	addi	a5,a5,28	#, _1, tmp73
# ../common/timer0.c:49: 	reg_timer0 = timerVal;
	.loc 1 49 13 is_stmt 0
	lw	a4,-20(s0)		# tmp74, timerVal
	sw	a4,0(a5)	# tmp74, *_1
# ../common/timer0.c:50: }
	.loc 1 50 1
	nop	
	lw	s0,28(sp)		#,
	.cfi_restore 8
	addi	sp,sp,32	#,,
	.cfi_def_cfa_register 2
	jr	ra		#
	.cfi_endproc
.LFE4:
	.size	TMR0_WriteTimer, .-TMR0_WriteTimer
	.align	1
	.globl	TMR0_clear_int_flag
	.type	TMR0_clear_int_flag, @function
TMR0_clear_int_flag:
.LFB5:
	.loc 1 54 1 is_stmt 1
	.cfi_startproc
	addi	sp,sp,-16	#,,
	.cfi_def_cfa_offset 16
	sw	s0,12(sp)	#,
	.cfi_offset 8, -4
	addi	s0,sp,16	#,,
	.cfi_def_cfa 8, 0
	.loc 1 55 2
# ../common/timer0.c:55: 	reg_timer0_conf_bits->INT_TMR = 0;
	.loc 1 55 22 is_stmt 0
	lui	a5,%hi(reg_timer0_conf_bits)	# tmp73,
	lw	a5,%lo(reg_timer0_conf_bits)(a5)		# reg_timer0_conf_bits.6_1, reg_timer0_conf_bits
# ../common/timer0.c:55: 	reg_timer0_conf_bits->INT_TMR = 0;
	.loc 1 55 32
	lbu	a4,0(a5)	# tmp75, reg_timer0_conf_bits.6_1->INT_TMR
	andi	a4,a4,-2	#, tmp76, tmp75
	sb	a4,0(a5)	# tmp77, reg_timer0_conf_bits.6_1->INT_TMR
# ../common/timer0.c:56: }
	.loc 1 56 1
	nop	
	lw	s0,12(sp)		#,
	.cfi_restore 8
	addi	sp,sp,16	#,,
	.cfi_def_cfa_register 2
	jr	ra		#
	.cfi_endproc
.LFE5:
	.size	TMR0_clear_int_flag, .-TMR0_clear_int_flag
	.align	1
	.globl	TMR0_is_done
	.type	TMR0_is_done, @function
TMR0_is_done:
.LFB6:
	.loc 1 59 1 is_stmt 1
	.cfi_startproc
	addi	sp,sp,-16	#,,
	.cfi_def_cfa_offset 16
	sw	s0,12(sp)	#,
	.cfi_offset 8, -4
	addi	s0,sp,16	#,,
	.cfi_def_cfa 8, 0
	.loc 1 60 2
# ../common/timer0.c:60: 	return (reg_timer0_conf_bits->INT_TMR ? true : false);
	.loc 1 60 30 is_stmt 0
	lui	a5,%hi(reg_timer0_conf_bits)	# tmp76,
	lw	a5,%lo(reg_timer0_conf_bits)(a5)		# reg_timer0_conf_bits.7_1, reg_timer0_conf_bits
	lw	a5,0(a5)		# tmp79, *reg_timer0_conf_bits.7_1
	andi	a5,a5,1	#, tmp80, tmp78
	andi	a5,a5,0xff	# _2, tmp80
# ../common/timer0.c:61: }
	.loc 1 61 1
	mv	a0,a5	#, <retval>
	lw	s0,12(sp)		#,
	.cfi_restore 8
	addi	sp,sp,16	#,,
	.cfi_def_cfa_register 2
	jr	ra		#
	.cfi_endproc
.LFE6:
	.size	TMR0_is_done, .-TMR0_is_done
	.align	1
	.globl	TMR0_SetInterruptHandler
	.type	TMR0_SetInterruptHandler, @function
TMR0_SetInterruptHandler:
.LFB7:
	.loc 1 63 63 is_stmt 1
	.cfi_startproc
.LVL7:
	addi	sp,sp,-32	#,,
	.cfi_def_cfa_offset 32
	sw	s0,28(sp)	#,
	.cfi_offset 8, -4
	addi	s0,sp,32	#,,
	.cfi_def_cfa 8, 0
	sw	a0,-20(s0)	# InterruptHandler, InterruptHandler
	.loc 1 64 5
# ../common/timer0.c:64:     TMR0_InterruptHandler = InterruptHandler;
	.loc 1 64 27 is_stmt 0
	lui	a5,%hi(TMR0_InterruptHandler)	# tmp72,
	lw	a4,-20(s0)		# tmp73, InterruptHandler
	sw	a4,%lo(TMR0_InterruptHandler)(a5)	# tmp73, TMR0_InterruptHandler
# ../common/timer0.c:65: }
	.loc 1 65 1
	nop	
	lw	s0,28(sp)		#,
	.cfi_restore 8
	addi	sp,sp,32	#,,
	.cfi_def_cfa_register 2
	jr	ra		#
	.cfi_endproc
.LFE7:
	.size	TMR0_SetInterruptHandler, .-TMR0_SetInterruptHandler
	.align	1
	.globl	TMR0_DefaultInterruptHandler
	.type	TMR0_DefaultInterruptHandler, @function
TMR0_DefaultInterruptHandler:
.LFB8:
	.loc 1 67 40 is_stmt 1
	.cfi_startproc
	addi	sp,sp,-16	#,,
	.cfi_def_cfa_offset 16
	sw	s0,12(sp)	#,
	.cfi_offset 8, -4
	addi	s0,sp,16	#,,
	.cfi_def_cfa 8, 0
	.loc 1 70 1
	nop	
	lw	s0,12(sp)		#,
	.cfi_restore 8
	addi	sp,sp,16	#,,
	.cfi_def_cfa_register 2
	jr	ra		#
	.cfi_endproc
.LFE8:
	.size	TMR0_DefaultInterruptHandler, .-TMR0_DefaultInterruptHandler
.Letext0:
	.file 2 "/opt/riscv32i/riscv32-unknown-elf/include/machine/_default_types.h"
	.file 3 "/opt/riscv32i/riscv32-unknown-elf/include/sys/_stdint.h"
	.file 4 "../common/vargen.h"
	.file 5 "../common/timer0.h"